target datalayout = "e-m:e-p270:32:32-p271:32:32-p272:64:64-i64:64-i128:128-f80:128-n8:16:32:64-S128"
target triple = "x86_64-unknown-linux-gnu"

%class.b2World = type <{ %class.b2BlockAllocator, %class.b2StackAllocator, %class.b2ContactManager, ptr, ptr, i32, i32, %struct.b2Vec2, i8, [7 x i8], ptr, ptr, float, i8, i8, i8, i8, i8, i8, i8, i8, %struct.b2Profile, [4 x i8] }>
%class.b2BlockAllocator = type { ptr, i32, i32, [14 x ptr] }
%class.b2StackAllocator = type <{ [102400 x i8], i32, i32, i32, [4 x i8], [32 x %struct.b2StackEntry], i32, [4 x i8] }>
%struct.b2StackEntry = type { ptr, i32, i8 }
%class.b2ContactManager = type { %class.b2BroadPhase, ptr, i32, ptr, ptr, ptr }
%class.b2BroadPhase = type <{ %class.b2DynamicTree, i32, [4 x i8], ptr, i32, i32, ptr, i32, i32, i32, [4 x i8] }>
%class.b2DynamicTree = type { i32, ptr, i32, i32, i32, i32 }
%struct.b2Vec2 = type { float, float }
%struct.b2Profile = type { float, float, float, float, float, float, float, float }
%class.b2Body = type { i32, i16, i32, %struct.b2Transform, %struct.b2Sweep, %struct.b2Vec2, float, %struct.b2Vec2, float, ptr, ptr, ptr, ptr, i32, ptr, ptr, float, float, float, float, float, float, float, float, %struct.b2BodyUserData }
%struct.b2Transform = type { %struct.b2Vec2, %struct.b2Rot }
%struct.b2Rot = type { float, float }
%struct.b2Sweep = type { %struct.b2Vec2, %struct.b2Vec2, %struct.b2Vec2, float, float, float }
%struct.b2BodyUserData = type { i64 }
%struct.b2JointEdge = type { ptr, ptr, ptr, ptr }
%class.b2Joint = type { ptr, i32, ptr, ptr, %struct.b2JointEdge, %struct.b2JointEdge, ptr, ptr, i32, i8, i8, %struct.b2JointUserData }
%struct.b2JointUserData = type { i64 }

; Function Attrs: mustprogress uwtable
define linkonce_odr hidden void @_ZN12b2BroadPhase11ShiftOriginERK6b2Vec2(ptr noundef nonnull align 8 dereferenceable(76) %this, ptr noundef nonnull align 4 dereferenceable(8) %newOrigin) #0 comdat align 2 {
entry:
  %this.addr = alloca ptr, align 8
  %newOrigin.addr = alloca ptr, align 8
  store ptr %this, ptr %this.addr, align 8
  store ptr %newOrigin, ptr %newOrigin.addr, align 8
  %this1 = load ptr, ptr %this.addr, align 8
  %m_tree = getelementptr inbounds %class.b2BroadPhase, ptr %this1, i32 0, i32 0
  %0 = load ptr, ptr %newOrigin.addr, align 8
  call void @_ZN13b2DynamicTree11ShiftOriginERK6b2Vec2(ptr noundef nonnull align 8 dereferenceable(32) %m_tree, ptr noundef nonnull align 4 dereferenceable(8) %0)
  ret void
}

; Function Attrs: mustprogress nounwind uwtable
define linkonce_odr hidden void @_ZN6b2Vec2mIERKS_(ptr noundef nonnull align 4 dereferenceable(8) %this, ptr noundef nonnull align 4 dereferenceable(8) %v) #5 comdat align 2 {
entry:
  %this.addr = alloca ptr, align 8
  %v.addr = alloca ptr, align 8
  store ptr %this, ptr %this.addr, align 8
  store ptr %v, ptr %v.addr, align 8
  %this1 = load ptr, ptr %this.addr, align 8
  %0 = load ptr, ptr %v.addr, align 8
  %x = getelementptr inbounds %struct.b2Vec2, ptr %0, i32 0, i32 0
  %1 = load float, ptr %x, align 4
  %x2 = getelementptr inbounds %struct.b2Vec2, ptr %this1, i32 0, i32 0
  %2 = load float, ptr %x2, align 4
  %sub = fsub float %2, %1
  store float %sub, ptr %x2, align 4
  %3 = load ptr, ptr %v.addr, align 8
  %y = getelementptr inbounds %struct.b2Vec2, ptr %3, i32 0, i32 1
  %4 = load float, ptr %y, align 4
  %y3 = getelementptr inbounds %struct.b2Vec2, ptr %this1, i32 0, i32 1
  %5 = load float, ptr %y3, align 4
  %sub4 = fsub float %5, %4
  store float %sub4, ptr %y3, align 4
  ret void
}

; Function Attrs: mustprogress uwtable
define void @_ZN7b2World11ShiftOriginERK6b2Vec2(ptr noundef nonnull align 8 dereferenceable(103284) %this, ptr noundef nonnull align 4 dereferenceable(8) %newOrigin) #0 align 2 {
entry:
  %this.addr = alloca ptr, align 8
  %newOrigin.addr = alloca ptr, align 8
  %b = alloca ptr, align 8
  %j = alloca ptr, align 8
  store ptr %this, ptr %this.addr, align 8
  store ptr %newOrigin, ptr %newOrigin.addr, align 8
  %this1 = load ptr, ptr %this.addr, align 8
  %m_locked = getelementptr inbounds %class.b2World, ptr %this1, i32 0, i32 14
  %0 = load i8, ptr %m_locked, align 1
  %tobool = trunc i8 %0 to i1
  br i1 %tobool, label %if.then, label %if.end

if.then:                                          ; preds = %entry
  br label %return

if.end:                                           ; preds = %entry
  %m_bodyList = getelementptr inbounds %class.b2World, ptr %this1, i32 0, i32 3
  %1 = load ptr, ptr %m_bodyList, align 8
  store ptr %1, ptr %b, align 8
  br label %for.cond

for.cond:                                         ; preds = %for.inc, %if.end
  %2 = load ptr, ptr %b, align 8
  %tobool2 = icmp ne ptr %2, null
  br i1 %tobool2, label %for.body, label %for.end

for.body:                                         ; preds = %for.cond
  %3 = load ptr, ptr %newOrigin.addr, align 8
  %4 = load ptr, ptr %b, align 8
  %m_xf = getelementptr inbounds %class.b2Body, ptr %4, i32 0, i32 3
  %p = getelementptr inbounds %struct.b2Transform, ptr %m_xf, i32 0, i32 0
  call void @_ZN6b2Vec2mIERKS_(ptr noundef nonnull align 4 dereferenceable(8) %p, ptr noundef nonnull align 4 dereferenceable(8) %3)
  %5 = load ptr, ptr %newOrigin.addr, align 8
  %6 = load ptr, ptr %b, align 8
  %m_sweep = getelementptr inbounds %class.b2Body, ptr %6, i32 0, i32 4
  %c0 = getelementptr inbounds %struct.b2Sweep, ptr %m_sweep, i32 0, i32 1
  call void @_ZN6b2Vec2mIERKS_(ptr noundef nonnull align 4 dereferenceable(8) %c0, ptr noundef nonnull align 4 dereferenceable(8) %5)
  %7 = load ptr, ptr %newOrigin.addr, align 8
  %8 = load ptr, ptr %b, align 8
  %m_sweep3 = getelementptr inbounds %class.b2Body, ptr %8, i32 0, i32 4
  %c = getelementptr inbounds %struct.b2Sweep, ptr %m_sweep3, i32 0, i32 2
  call void @_ZN6b2Vec2mIERKS_(ptr noundef nonnull align 4 dereferenceable(8) %c, ptr noundef nonnull align 4 dereferenceable(8) %7)
  br label %for.inc

for.inc:                                          ; preds = %for.body
  %9 = load ptr, ptr %b, align 8
  %m_next = getelementptr inbounds %class.b2Body, ptr %9, i32 0, i32 11
  %10 = load ptr, ptr %m_next, align 8
  store ptr %10, ptr %b, align 8
  br label %for.cond, !llvm.loop !41

for.end:                                          ; preds = %for.cond
  %m_jointList = getelementptr inbounds %class.b2World, ptr %this1, i32 0, i32 4
  %11 = load ptr, ptr %m_jointList, align 8
  store ptr %11, ptr %j, align 8
  br label %for.cond4

for.cond4:                                        ; preds = %for.inc7, %for.end
  %12 = load ptr, ptr %j, align 8
  %tobool5 = icmp ne ptr %12, null
  br i1 %tobool5, label %for.body6, label %for.end9

for.body6:                                        ; preds = %for.cond4
  %13 = load ptr, ptr %j, align 8
  %14 = load ptr, ptr %newOrigin.addr, align 8
  %vtable = load ptr, ptr %13, align 8
  %vfn = getelementptr inbounds ptr, ptr %vtable, i64 5
  %15 = load ptr, ptr %vfn, align 8
  call void %15(ptr noundef nonnull align 8 dereferenceable(128) %13, ptr noundef nonnull align 4 dereferenceable(8) %14)
  br label %for.inc7

for.inc7:                                         ; preds = %for.body6
  %16 = load ptr, ptr %j, align 8
  %m_next8 = getelementptr inbounds %class.b2Joint, ptr %16, i32 0, i32 3
  %17 = load ptr, ptr %m_next8, align 8
  store ptr %17, ptr %j, align 8
  br label %for.cond4, !llvm.loop !42

for.end9:                                         ; preds = %for.cond4
  %m_contactManager = getelementptr inbounds %class.b2World, ptr %this1, i32 0, i32 2
  %m_broadPhase = getelementptr inbounds %class.b2ContactManager, ptr %m_contactManager, i32 0, i32 0
  %18 = load ptr, ptr %newOrigin.addr, align 8
  call void @_ZN12b2BroadPhase11ShiftOriginERK6b2Vec2(ptr noundef nonnull align 8 dereferenceable(76) %m_broadPhase, ptr noundef nonnull align 4 dereferenceable(8) %18)
  br label %return

return:                                           ; preds = %for.end9, %if.then
  ret void
}