; Function Attrs: mustprogress uwtable
define void @_ZN7b2World11ShiftOriginERK6b2Vec2(ptr noundef nonnull align 8 dereferenceable(103284) %this, ptr noundef nonnull align 4 dereferenceable(8) %newOrigin) local_unnamed_addr #0 align 2 {
entry:
  %m_locked = getelementptr inbounds nuw i8, ptr %this, i64 103245
  %0 = load i8, ptr %m_locked, align 1
  %tobool = trunc i8 %0 to i1
  br i1 %tobool, label %return, label %if.end

if.end:                                           ; preds = %entry
  %m_bodyList = getelementptr inbounds nuw i8, ptr %this, i64 103184
  %b.019 = load ptr, ptr %m_bodyList, align 8
  %tobool2.not20 = icmp eq ptr %b.019, null
  br i1 %tobool2.not20, label %for.end, label %for.body.lr.ph

for.body.lr.ph:                                   ; preds = %if.end
  %y.i = getelementptr inbounds nuw i8, ptr %newOrigin, i64 4
  br label %for.body

for.body:                                         ; preds = %for.body.lr.ph, %for.body
  %b.021 = phi ptr [ %b.019, %for.body.lr.ph ], [ %b.0, %for.body ]
  %m_xf = getelementptr inbounds nuw i8, ptr %b.021, i64 12
  %1 = load float, ptr %newOrigin, align 4
  %2 = load float, ptr %m_xf, align 4
  %sub.i = fsub float %2, %1
  store float %sub.i, ptr %m_xf, align 4
  %3 = load float, ptr %y.i, align 4
  %y3.i = getelementptr inbounds nuw i8, ptr %b.021, i64 16
  %4 = load float, ptr %y3.i, align 4
  %sub4.i = fsub float %4, %3
  store float %sub4.i, ptr %y3.i, align 4
  %c0 = getelementptr inbounds nuw i8, ptr %b.021, i64 36
  %5 = load float, ptr %newOrigin, align 4
  %6 = load float, ptr %c0, align 4
  %sub.i11 = fsub float %6, %5
  store float %sub.i11, ptr %c0, align 4
  %7 = load float, ptr %y.i, align 4
  %y3.i13 = getelementptr inbounds nuw i8, ptr %b.021, i64 40
  %8 = load float, ptr %y3.i13, align 4
  %sub4.i14 = fsub float %8, %7
  store float %sub4.i14, ptr %y3.i13, align 4
  %c = getelementptr inbounds nuw i8, ptr %b.021, i64 44
  %9 = load float, ptr %newOrigin, align 4
  %10 = load float, ptr %c, align 4
  %sub.i15 = fsub float %10, %9
  store float %sub.i15, ptr %c, align 4
  %11 = load float, ptr %y.i, align 4
  %y3.i17 = getelementptr inbounds nuw i8, ptr %b.021, i64 48
  %12 = load float, ptr %y3.i17, align 4
  %sub4.i18 = fsub float %12, %11
  store float %sub4.i18, ptr %y3.i17, align 4
  %m_next = getelementptr inbounds nuw i8, ptr %b.021, i64 104
  %b.0 = load ptr, ptr %m_next, align 8
  %tobool2.not = icmp eq ptr %b.0, null
  br i1 %tobool2.not, label %for.end, label %for.body, !llvm.loop !40

for.end:                                          ; preds = %for.body, %if.end
  %m_jointList = getelementptr inbounds nuw i8, ptr %this, i64 103192
  %j.022 = load ptr, ptr %m_jointList, align 8
  %tobool5.not23 = icmp eq ptr %j.022, null
  br i1 %tobool5.not23, label %for.end9, label %for.body6

for.body6:                                        ; preds = %for.end, %for.body6
  %j.024 = phi ptr [ %j.0, %for.body6 ], [ %j.022, %for.end ]
  %vtable = load ptr, ptr %j.024, align 8
  %vfn = getelementptr inbounds nuw i8, ptr %vtable, i64 40
  %13 = load ptr, ptr %vfn, align 8
  tail call void %13(ptr noundef nonnull align 8 dereferenceable(128) %j.024, ptr noundef nonnull align 4 dereferenceable(8) %newOrigin)
  %m_next8 = getelementptr inbounds nuw i8, ptr %j.024, i64 24
  %j.0 = load ptr, ptr %m_next8, align 8
  %tobool5.not = icmp eq ptr %j.0, null
  br i1 %tobool5.not, label %for.end9, label %for.body6, !llvm.loop !41

for.end9:                                         ; preds = %for.body6, %for.end
  %m_contactManager = getelementptr inbounds nuw i8, ptr %this, i64 103064
  tail call void @_ZN13b2DynamicTree11ShiftOriginERK6b2Vec2(ptr noundef nonnull align 8 dereferenceable(76) %m_contactManager, ptr noundef nonnull align 4 dereferenceable(8) %newOrigin)
  br label %return

return:                                           ; preds = %entry, %for.end9
  ret void
}